target datalayout = "e-m:e-p270:32:32-p271:32:32-p272:64:64-i64:64-i128:128-f80:128-n8:16:32:64-S128"
target triple = "x86_64-pc-linux-gnu"

%struct.hashTypeIterator = type { ptr, i32, ptr, ptr, ptr, i64, ptr, ptr }

@.str.2 = private unnamed_addr constant [9 x i8] c"t_hash.c\00", align 1
@.str.22 = private unnamed_addr constant [82 x i8] c"hi->encoding == OBJ_ENCODING_LISTPACK || hi->encoding == OBJ_ENCODING_LISTPACK_EX\00", align 1

; Function Attrs: nounwind uwtable
define dso_local void @hashTypeCurrentFromListpack(ptr noundef %0, i32 noundef %1, ptr noundef %2, ptr noundef %3, ptr noundef %4, ptr noundef %5) #1 {
  %7 = alloca ptr, align 8
  %8 = alloca i32, align 4
  %9 = alloca ptr, align 8
  %10 = alloca ptr, align 8
  %11 = alloca ptr, align 8
  %12 = alloca ptr, align 8
  store ptr %0, ptr %7, align 8, !tbaa !10
  store i32 %1, ptr %8, align 4, !tbaa !13
  store ptr %2, ptr %9, align 8, !tbaa !102
  store ptr %3, ptr %10, align 8, !tbaa !103
  store ptr %4, ptr %11, align 8, !tbaa !105
  store ptr %5, ptr %12, align 8, !tbaa !107
  %13 = load ptr, ptr %7, align 8, !tbaa !10
  %14 = getelementptr inbounds nuw %struct.hashTypeIterator, ptr %13, i32 0, i32 1
  %15 = load i32, ptr %14, align 8, !tbaa !133
  %16 = icmp eq i32 %15, 11
  br i1 %16, label %22, label %17

17:                                               ; preds = %6
  %18 = load ptr, ptr %7, align 8, !tbaa !10
  %19 = getelementptr inbounds nuw %struct.hashTypeIterator, ptr %18, i32 0, i32 1
  %20 = load i32, ptr %19, align 8, !tbaa !133
  %21 = icmp eq i32 %20, 12
  br label %22

22:                                               ; preds = %17, %6
  %23 = phi i1 [ true, %6 ], [ %21, %17 ]
  %24 = xor i1 %23, true
  %25 = xor i1 %24, true
  %26 = zext i1 %25 to i32
  %27 = sext i32 %26 to i64
  %28 = call i64 @llvm.expect.i64(i64 %27, i64 1)
  %29 = icmp ne i64 %28, 0
  br i1 %29, label %30, label %31

30:                                               ; preds = %22
  br label %33

31:                                               ; preds = %22
  call void @_serverAssert(ptr noundef @.str.22, ptr noundef @.str.2, i32 noundef 1451)
  call void @abort() #14
  unreachable

32:                                               ; No predecessors!
  br label %33

33:                                               ; preds = %32, %30
  %34 = load i32, ptr %8, align 4, !tbaa !13
  %35 = and i32 %34, 1
  %36 = icmp ne i32 %35, 0
  br i1 %36, label %37, label %45

37:                                               ; preds = %33
  %38 = load ptr, ptr %7, align 8, !tbaa !10
  %39 = getelementptr inbounds nuw %struct.hashTypeIterator, ptr %38, i32 0, i32 2
  %40 = load ptr, ptr %39, align 8, !tbaa !134
  %41 = load ptr, ptr %10, align 8, !tbaa !103
  %42 = load ptr, ptr %11, align 8, !tbaa !105
  %43 = call ptr @lpGetValue(ptr noundef %40, ptr noundef %41, ptr noundef %42)
  %44 = load ptr, ptr %9, align 8, !tbaa !102
  store ptr %43, ptr %44, align 8, !tbaa !33
  br label %53

45:                                               ; preds = %33
  %46 = load ptr, ptr %7, align 8, !tbaa !10
  %47 = getelementptr inbounds nuw %struct.hashTypeIterator, ptr %46, i32 0, i32 3
  %48 = load ptr, ptr %47, align 8, !tbaa !135
  %49 = load ptr, ptr %10, align 8, !tbaa !103
  %50 = load ptr, ptr %11, align 8, !tbaa !105
  %51 = call ptr @lpGetValue(ptr noundef %48, ptr noundef %49, ptr noundef %50)
  %52 = load ptr, ptr %9, align 8, !tbaa !102
  store ptr %51, ptr %52, align 8, !tbaa !33
  br label %53

53:                                               ; preds = %45, %37
  %54 = load ptr, ptr %12, align 8, !tbaa !107
  %55 = icmp ne ptr %54, null
  br i1 %55, label %56, label %61

56:                                               ; preds = %53
  %57 = load ptr, ptr %7, align 8, !tbaa !10
  %58 = getelementptr inbounds nuw %struct.hashTypeIterator, ptr %57, i32 0, i32 5
  %59 = load i64, ptr %58, align 8, !tbaa !137
  %60 = load ptr, ptr %12, align 8, !tbaa !107
  store i64 %59, ptr %60, align 8, !tbaa !31
  br label %61

61:                                               ; preds = %56, %53
  ret void
}